; Function Attrs: null_pointer_is_valid sspstrong uwtable
define internal i32 @dissect_mms_T_listOfAccessResult(i1 noundef zeroext %0, ptr noundef %1, i32 noundef %2, ptr noundef %3, ptr noundef %4, i32 noundef %5) #0 {
  %7 = getelementptr inbounds nuw i8, ptr %3, i64 48
  %8 = load ptr, ptr %7, align 8
  %.not = icmp eq ptr %8, null
  br i1 %.not, label %11, label %9

9:                                                ; preds = %6
  %10 = getelementptr inbounds nuw i8, ptr %8, i64 12
  store i32 0, ptr %10, align 4
  br label %11

11:                                               ; preds = %9, %6
  %12 = load i32, ptr @ett_mms_T_listOfAccessResult, align 4
  %13 = tail call i32 @dissect_ber_sequence_of(i1 noundef zeroext %0, ptr noundef %3, ptr noundef %4, ptr noundef %1, i32 noundef %2, ptr noundef nonnull @T_listOfAccessResult_sequence_of, i32 noundef %5, i32 noundef %12)
  ret i32 %13
}